; ModuleID = '39/2170.c'
source_filename = "39/2170.c"
target datalayout = "e-m:e-p270:32:32-p271:32:32-p272:64:64-i64:64-f80:128-n8:16:32:64-S128"
target triple = "x86_64-pc-linux-gnu"

@.str = private unnamed_addr constant [3 x i8] c"%d\00", align 1
@.str.1 = private unnamed_addr constant [15 x i8] c"%s%d%d %c %c%d\00", align 1
@.str.2 = private unnamed_addr constant [4 x i8] c"%s\0A\00", align 1
@.str.3 = private unnamed_addr constant [4 x i8] c"%d\0A\00", align 1

; Function Attrs: noinline nounwind uwtable
define dso_local i32 @main() #0 {
  %1 = alloca i32, align 4
  %2 = alloca i32, align 4
  %3 = alloca i32, align 4
  %4 = alloca [100 x i32], align 16
  %5 = alloca i32, align 4
  %6 = alloca [100 x [20 x i8]], align 16
  %7 = alloca i32, align 4
  %8 = alloca i32, align 4
  %9 = alloca i8, align 1
  %10 = alloca i8, align 1
  %11 = alloca i32, align 4
  %12 = alloca i32, align 4
  %13 = alloca i32, align 4
  store i32 0, i32* %1, align 4
  %14 = call i32 (i8*, ...) @__isoc99_scanf(i8* getelementptr inbounds ([3 x i8], [3 x i8]* @.str, i64 0, i64 0), i32* %2)
  %15 = bitcast [100 x i32]* %4 to i8*
  call void @llvm.memset.p0i8.i64(i8* align 16 %15, i8 0, i64 400, i1 false)
  store i32 0, i32* %5, align 4
  store i32 0, i32* %3, align 4
  br label %16

16:                                               ; preds = %90, %0
  %17 = load i32, i32* %3, align 4
  %18 = load i32, i32* %2, align 4
  %19 = icmp slt i32 %17, %18
  br i1 %19, label %20, label %93

20:                                               ; preds = %16
  %21 = load i32, i32* %3, align 4
  %22 = sext i32 %21 to i64
  %23 = getelementptr inbounds [100 x [20 x i8]], [100 x [20 x i8]]* %6, i64 0, i64 %22
  %24 = call i32 (i8*, ...) @__isoc99_scanf(i8* getelementptr inbounds ([15 x i8], [15 x i8]* @.str.1, i64 0, i64 0), [20 x i8]* %23, i32* %7, i32* %8, i8* %9, i8* %10, i32* %11)
  %25 = load i32, i32* %7, align 4
  %26 = icmp sgt i32 %25, 80
  br i1 %26, label %27, label %36

27:                                               ; preds = %20
  %28 = load i32, i32* %11, align 4
  %29 = icmp ne i32 %28, 0
  br i1 %29, label %30, label %36

30:                                               ; preds = %27
  %31 = load i32, i32* %3, align 4
  %32 = sext i32 %31 to i64
  %33 = getelementptr inbounds [100 x i32], [100 x i32]* %4, i64 0, i64 %32
  %34 = load i32, i32* %33, align 4
  %35 = add nsw i32 %34, 8000
  store i32 %35, i32* %33, align 4
  br label %36

36:                                               ; preds = %30, %27, %20
  %37 = load i32, i32* %7, align 4
  %38 = icmp sgt i32 %37, 85
  br i1 %38, label %39, label %48

39:                                               ; preds = %36
  %40 = load i32, i32* %8, align 4
  %41 = icmp sgt i32 %40, 80
  br i1 %41, label %42, label %48

42:                                               ; preds = %39
  %43 = load i32, i32* %3, align 4
  %44 = sext i32 %43 to i64
  %45 = getelementptr inbounds [100 x i32], [100 x i32]* %4, i64 0, i64 %44
  %46 = load i32, i32* %45, align 4
  %47 = add nsw i32 %46, 4000
  store i32 %47, i32* %45, align 4
  br label %48

48:                                               ; preds = %42, %39, %36
  %49 = load i32, i32* %7, align 4
  %50 = icmp sgt i32 %49, 90
  br i1 %50, label %51, label %57

51:                                               ; preds = %48
  %52 = load i32, i32* %3, align 4
  %53 = sext i32 %52 to i64
  %54 = getelementptr inbounds [100 x i32], [100 x i32]* %4, i64 0, i64 %53
  %55 = load i32, i32* %54, align 4
  %56 = add nsw i32 %55, 2000
  store i32 %56, i32* %54, align 4
  br label %57

57:                                               ; preds = %51, %48
  %58 = load i32, i32* %7, align 4
  %59 = icmp sgt i32 %58, 85
  br i1 %59, label %60, label %70

60:                                               ; preds = %57
  %61 = load i8, i8* %10, align 1
  %62 = sext i8 %61 to i32
  %63 = icmp eq i32 %62, 89
  br i1 %63, label %64, label %70

64:                                               ; preds = %60
  %65 = load i32, i32* %3, align 4
  %66 = sext i32 %65 to i64
  %67 = getelementptr inbounds [100 x i32], [100 x i32]* %4, i64 0, i64 %66
  %68 = load i32, i32* %67, align 4
  %69 = add nsw i32 %68, 1000
  store i32 %69, i32* %67, align 4
  br label %70

70:                                               ; preds = %64, %60, %57
  %71 = load i32, i32* %8, align 4
  %72 = icmp sgt i32 %71, 80
  br i1 %72, label %73, label %83

73:                                               ; preds = %70
  %74 = load i8, i8* %9, align 1
  %75 = sext i8 %74 to i32
  %76 = icmp eq i32 %75, 89
  br i1 %76, label %77, label %83

77:                                               ; preds = %73
  %78 = load i32, i32* %3, align 4
  %79 = sext i32 %78 to i64
  %80 = getelementptr inbounds [100 x i32], [100 x i32]* %4, i64 0, i64 %79
  %81 = load i32, i32* %80, align 4
  %82 = add nsw i32 %81, 850
  store i32 %82, i32* %80, align 4
  br label %83

83:                                               ; preds = %77, %73, %70
  %84 = load i32, i32* %3, align 4
  %85 = sext i32 %84 to i64
  %86 = getelementptr inbounds [100 x i32], [100 x i32]* %4, i64 0, i64 %85
  %87 = load i32, i32* %86, align 4
  %88 = load i32, i32* %5, align 4
  %89 = add nsw i32 %88, %87
  store i32 %89, i32* %5, align 4
  br label %90

90:                                               ; preds = %83
  %91 = load i32, i32* %3, align 4
  %92 = add nsw i32 %91, 1
  store i32 %92, i32* %3, align 4
  br label %16

93:                                               ; preds = %16
  store i32 0, i32* %12, align 4
  store i32 0, i32* %3, align 4
  br label %94

94:                                               ; preds = %112, %93
  %95 = load i32, i32* %3, align 4
  %96 = load i32, i32* %2, align 4
  %97 = icmp slt i32 %95, %96
  br i1 %97, label %98, label %115

98:                                               ; preds = %94
  %99 = load i32, i32* %3, align 4
  %100 = sext i32 %99 to i64
  %101 = getelementptr inbounds [100 x i32], [100 x i32]* %4, i64 0, i64 %100
  %102 = load i32, i32* %101, align 4
  %103 = load i32, i32* %12, align 4
  %104 = icmp sgt i32 %102, %103
  br i1 %104, label %105, label %111

105:                                              ; preds = %98
  %106 = load i32, i32* %3, align 4
  %107 = sext i32 %106 to i64
  %108 = getelementptr inbounds [100 x i32], [100 x i32]* %4, i64 0, i64 %107
  %109 = load i32, i32* %108, align 4
  store i32 %109, i32* %12, align 4
  %110 = load i32, i32* %3, align 4
  store i32 %110, i32* %13, align 4
  br label %111

111:                                              ; preds = %105, %98
  br label %112

112:                                              ; preds = %111
  %113 = load i32, i32* %3, align 4
  %114 = add nsw i32 %113, 1
  store i32 %114, i32* %3, align 4
  br label %94

115:                                              ; preds = %94
  %116 = load i32, i32* %13, align 4
  %117 = sext i32 %116 to i64
  %118 = getelementptr inbounds [100 x [20 x i8]], [100 x [20 x i8]]* %6, i64 0, i64 %117
  %119 = getelementptr inbounds [20 x i8], [20 x i8]* %118, i64 0, i64 0
  %120 = call i32 (i8*, ...) @printf(i8* getelementptr inbounds ([4 x i8], [4 x i8]* @.str.2, i64 0, i64 0), i8* %119)
  %121 = load i32, i32* %13, align 4
  %122 = sext i32 %121 to i64
  %123 = getelementptr inbounds [100 x i32], [100 x i32]* %4, i64 0, i64 %122
  %124 = load i32, i32* %123, align 4
  %125 = call i32 (i8*, ...) @printf(i8* getelementptr inbounds ([4 x i8], [4 x i8]* @.str.3, i64 0, i64 0), i32 %124)
  %126 = load i32, i32* %5, align 4
  %127 = call i32 (i8*, ...) @printf(i8* getelementptr inbounds ([4 x i8], [4 x i8]* @.str.3, i64 0, i64 0), i32 %126)
  ret i32 0
}

declare dso_local i32 @__isoc99_scanf(i8*, ...) #1

; Function Attrs: argmemonly nounwind willreturn
declare void @llvm.memset.p0i8.i64(i8* nocapture writeonly, i8, i64, i1 immarg) #2

declare dso_local i32 @printf(i8*, ...) #1


!llvm.module.flags = !{!0}
!llvm.ident = !{!1}

!0 = !{i32 1, !"wchar_size", i32 4}
!1 = !{!"clang version 10.0.0-4ubuntu1 "}
